; Function Attrs: mustprogress uwtable
define dso_local void @_ZN5vcpkg24WarningDiagnosticContext6reportEONS_14DiagnosticLineE(ptr noundef nonnull readonly align 8 captures(none) dereferenceable(16) %0, ptr noundef nonnull align 8 dereferenceable(88) %1) unnamed_addr #0 align 2 personality ptr @__gxx_personality_v0 {
  %3 = alloca %"struct.vcpkg::DiagnosticLine", align 8
  %4 = getelementptr inbounds nuw i8, ptr %0, i64 8
  %5 = load ptr, ptr %4, align 8, !tbaa !85
  call void @llvm.lifetime.start.p0(i64 88, ptr nonnull %3) #26
  tail call void @llvm.experimental.noalias.scope.decl(metadata !90)
  %6 = load i32, ptr %1, align 8, !tbaa !30, !noalias !90
  %7 = icmp eq i32 %6, 2
  %spec.select.i = select i1 %7, i32 3, i32 %6
  %8 = getelementptr inbounds nuw i8, ptr %1, i64 8
  %9 = getelementptr inbounds nuw i8, ptr %1, i64 48
  %.sroa.0.0.copyload.i = load i64, ptr %9, align 8, !noalias !90
  %10 = getelementptr inbounds nuw i8, ptr %1, i64 56
  store i32 %spec.select.i, ptr %3, align 8, !tbaa !30, !alias.scope !90
  %11 = getelementptr inbounds nuw i8, ptr %3, i64 8
  store i8 0, ptr %11, align 8, !tbaa !39, !alias.scope !90
  %12 = getelementptr inbounds nuw i8, ptr %3, i64 16
  store i8 0, ptr %12, align 8, !tbaa !18, !alias.scope !90
  %13 = load i8, ptr %8, align 8, !tbaa !39, !range !40, !noalias !90, !noundef !41
  %14 = trunc nuw i8 %13 to i1
  br i1 %14, label %15, label %_ZN5vcpkg8OptionalINSt7__cxx1112basic_stringIcSt11char_traitsIcESaIcEEEEC2EOS7_.exit.i.i

15:                                               ; preds = %2
  store i8 1, ptr %11, align 8, !tbaa !39, !alias.scope !90
  %16 = getelementptr inbounds nuw i8, ptr %1, i64 16
  %17 = getelementptr inbounds nuw i8, ptr %3, i64 32
  store ptr %17, ptr %12, align 8, !tbaa !19, !alias.scope !90
  %18 = load ptr, ptr %16, align 8, !tbaa !12, !noalias !90
  %19 = getelementptr inbounds nuw i8, ptr %1, i64 32
  %20 = icmp eq ptr %18, %19
  br i1 %20, label %21, label %_ZNKSt7__cxx1112basic_stringIcSt11char_traitsIcESaIcEE11_M_is_localEv.exit.i.i.i.i.i

21:                                               ; preds = %15
  %22 = getelementptr inbounds nuw i8, ptr %1, i64 24
  %23 = load i64, ptr %22, align 8, !tbaa !17, !noalias !90
  %24 = icmp ult i64 %23, 16
  call void @llvm.assume(i1 %24)
  %25 = add nuw nsw i64 %23, 1
  call void @llvm.memcpy.p0.p0.i64(ptr noundef nonnull align 8 dereferenceable(1) %17, ptr noundef nonnull align 8 dereferenceable(1) %19, i64 %25, i1 false)
  br label %_ZNSt7__cxx1112basic_stringIcSt11char_traitsIcESaIcEEC2EOS4_.exit.i.i.i.i

_ZNKSt7__cxx1112basic_stringIcSt11char_traitsIcESaIcEE11_M_is_localEv.exit.i.i.i.i.i: ; preds = %15
  store ptr %18, ptr %12, align 8, !tbaa !12, !alias.scope !90
  %26 = load i64, ptr %19, align 8, !tbaa !18, !noalias !90
  store i64 %26, ptr %17, align 8, !tbaa !18, !alias.scope !90
  %.phi.trans.insert.i = getelementptr inbounds nuw i8, ptr %1, i64 24
  %.pre.i = load i64, ptr %.phi.trans.insert.i, align 8, !tbaa !17, !noalias !90
  br label %_ZNSt7__cxx1112basic_stringIcSt11char_traitsIcESaIcEEC2EOS4_.exit.i.i.i.i

_ZNSt7__cxx1112basic_stringIcSt11char_traitsIcESaIcEEC2EOS4_.exit.i.i.i.i: ; preds = %_ZNKSt7__cxx1112basic_stringIcSt11char_traitsIcESaIcEE11_M_is_localEv.exit.i.i.i.i.i, %21
  %27 = phi i64 [ %.pre.i, %_ZNKSt7__cxx1112basic_stringIcSt11char_traitsIcESaIcEE11_M_is_localEv.exit.i.i.i.i.i ], [ %23, %21 ]
  %28 = getelementptr inbounds nuw i8, ptr %1, i64 24
  %29 = getelementptr inbounds nuw i8, ptr %3, i64 24
  store i64 %27, ptr %29, align 8, !tbaa !17, !alias.scope !90
  store ptr %19, ptr %16, align 8, !tbaa !12, !noalias !90
  store i64 0, ptr %28, align 8, !tbaa !17, !noalias !90
  store i8 0, ptr %19, align 8, !tbaa !18, !noalias !90
  br label %_ZN5vcpkg8OptionalINSt7__cxx1112basic_stringIcSt11char_traitsIcESaIcEEEEC2EOS7_.exit.i.i

_ZN5vcpkg8OptionalINSt7__cxx1112basic_stringIcSt11char_traitsIcESaIcEEEEC2EOS7_.exit.i.i: ; preds = %_ZNSt7__cxx1112basic_stringIcSt11char_traitsIcESaIcEEC2EOS4_.exit.i.i.i.i, %2
  %30 = getelementptr inbounds nuw i8, ptr %3, i64 48
  store i64 %.sroa.0.0.copyload.i, ptr %30, align 8, !alias.scope !90
  %31 = getelementptr inbounds nuw i8, ptr %3, i64 56
  %32 = getelementptr inbounds nuw i8, ptr %3, i64 72
  store ptr %32, ptr %31, align 8, !tbaa !19, !alias.scope !90
  %33 = load ptr, ptr %10, align 8, !tbaa !12, !noalias !90
  %34 = getelementptr inbounds nuw i8, ptr %1, i64 72
  %35 = icmp eq ptr %33, %34
  br i1 %35, label %36, label %_ZNKSt7__cxx1112basic_stringIcSt11char_traitsIcESaIcEE11_M_is_localEv.exit.i.i.i.i

36:                                               ; preds = %_ZN5vcpkg8OptionalINSt7__cxx1112basic_stringIcSt11char_traitsIcESaIcEEEEC2EOS7_.exit.i.i
  %37 = getelementptr inbounds nuw i8, ptr %1, i64 64
  %38 = load i64, ptr %37, align 8, !tbaa !17, !noalias !90
  %39 = icmp ult i64 %38, 16
  call void @llvm.assume(i1 %39)
  %40 = add nuw nsw i64 %38, 1
  call void @llvm.memcpy.p0.p0.i64(ptr noundef nonnull align 8 dereferenceable(1) %32, ptr noundef nonnull align 8 dereferenceable(1) %34, i64 %40, i1 false)
  br label %_ZNO5vcpkg14DiagnosticLine17reduce_to_warningEv.exit

_ZNKSt7__cxx1112basic_stringIcSt11char_traitsIcESaIcEE11_M_is_localEv.exit.i.i.i.i: ; preds = %_ZN5vcpkg8OptionalINSt7__cxx1112basic_stringIcSt11char_traitsIcESaIcEEEEC2EOS7_.exit.i.i
  store ptr %33, ptr %31, align 8, !tbaa !12, !alias.scope !90
  %41 = load i64, ptr %34, align 8, !tbaa !18, !noalias !90
  store i64 %41, ptr %32, align 8, !tbaa !18, !alias.scope !90
  %.phi.trans.insert1.i = getelementptr inbounds nuw i8, ptr %1, i64 64
  %.pre2.i = load i64, ptr %.phi.trans.insert1.i, align 8, !tbaa !17, !noalias !90
  br label %_ZNO5vcpkg14DiagnosticLine17reduce_to_warningEv.exit

_ZNO5vcpkg14DiagnosticLine17reduce_to_warningEv.exit: ; preds = %36, %_ZNKSt7__cxx1112basic_stringIcSt11char_traitsIcESaIcEE11_M_is_localEv.exit.i.i.i.i
  %42 = phi i64 [ %38, %36 ], [ %.pre2.i, %_ZNKSt7__cxx1112basic_stringIcSt11char_traitsIcESaIcEE11_M_is_localEv.exit.i.i.i.i ]
  %43 = getelementptr inbounds nuw i8, ptr %1, i64 64
  %44 = getelementptr inbounds nuw i8, ptr %3, i64 64
  store i64 %42, ptr %44, align 8, !tbaa !17, !alias.scope !90
  store ptr %34, ptr %10, align 8, !tbaa !12, !noalias !90
  store i64 0, ptr %43, align 8, !tbaa !17, !noalias !90
  store i8 0, ptr %34, align 8, !tbaa !18, !noalias !90
  %45 = load ptr, ptr %5, align 8, !tbaa !4
  %46 = getelementptr inbounds nuw i8, ptr %45, i64 8
  %47 = load ptr, ptr %46, align 8
  invoke void %47(ptr noundef nonnull align 8 dereferenceable(8) %5, ptr noundef nonnull align 8 dereferenceable(88) %3)
          to label %48 unwind label %66

48:                                               ; preds = %_ZNO5vcpkg14DiagnosticLine17reduce_to_warningEv.exit
  %49 = load ptr, ptr %31, align 8, !tbaa !12
  %50 = icmp eq ptr %49, %32
  br i1 %50, label %_ZNKSt7__cxx1112basic_stringIcSt11char_traitsIcESaIcEE11_M_is_localEv.exit.thread.i.i.i.i, label %_ZNKSt7__cxx1112basic_stringIcSt11char_traitsIcESaIcEE11_M_is_localEv.exit.i.i.i.i3

_ZNKSt7__cxx1112basic_stringIcSt11char_traitsIcESaIcEE11_M_is_localEv.exit.thread.i.i.i.i: ; preds = %48
  %51 = load i64, ptr %44, align 8, !tbaa !17
  %52 = icmp ult i64 %51, 16
  call void @llvm.assume(i1 %52)
  br label %_ZN5vcpkg15LocalizedStringD2Ev.exit.i

_ZNKSt7__cxx1112basic_stringIcSt11char_traitsIcESaIcEE11_M_is_localEv.exit.i.i.i.i3: ; preds = %48
  %53 = load i64, ptr %32, align 8, !tbaa !18
  %54 = add i64 %53, 1
  call void @_ZdlPvm(ptr noundef %49, i64 noundef %54) #28
  br label %_ZN5vcpkg15LocalizedStringD2Ev.exit.i

_ZN5vcpkg15LocalizedStringD2Ev.exit.i:            ; preds = %_ZNKSt7__cxx1112basic_stringIcSt11char_traitsIcESaIcEE11_M_is_localEv.exit.i.i.i.i3, %_ZNKSt7__cxx1112basic_stringIcSt11char_traitsIcESaIcEE11_M_is_localEv.exit.thread.i.i.i.i
  %55 = load i8, ptr %11, align 8, !tbaa !39, !range !40, !noundef !41
  %56 = trunc nuw i8 %55 to i1
  br i1 %56, label %57, label %_ZN5vcpkg14DiagnosticLineD2Ev.exit

57:                                               ; preds = %_ZN5vcpkg15LocalizedStringD2Ev.exit.i
  %58 = load ptr, ptr %12, align 8, !tbaa !12
  %59 = getelementptr inbounds nuw i8, ptr %3, i64 32
  %60 = icmp eq ptr %58, %59
  br i1 %60, label %_ZNKSt7__cxx1112basic_stringIcSt11char_traitsIcESaIcEE11_M_is_localEv.exit.thread.i.i.i2.i, label %_ZNKSt7__cxx1112basic_stringIcSt11char_traitsIcESaIcEE11_M_is_localEv.exit.i.i.i1.i

_ZNKSt7__cxx1112basic_stringIcSt11char_traitsIcESaIcEE11_M_is_localEv.exit.thread.i.i.i2.i: ; preds = %57
  %61 = getelementptr inbounds nuw i8, ptr %3, i64 24
  %62 = load i64, ptr %61, align 8, !tbaa !17
  %63 = icmp ult i64 %62, 16
  call void @llvm.assume(i1 %63)
  br label %_ZN5vcpkg14DiagnosticLineD2Ev.exit

_ZNKSt7__cxx1112basic_stringIcSt11char_traitsIcESaIcEE11_M_is_localEv.exit.i.i.i1.i: ; preds = %57
  %64 = load i64, ptr %59, align 8, !tbaa !18
  %65 = add i64 %64, 1
  call void @_ZdlPvm(ptr noundef %58, i64 noundef %65) #28
  br label %_ZN5vcpkg14DiagnosticLineD2Ev.exit

_ZN5vcpkg14DiagnosticLineD2Ev.exit:               ; preds = %_ZN5vcpkg15LocalizedStringD2Ev.exit.i, %_ZNKSt7__cxx1112basic_stringIcSt11char_traitsIcESaIcEE11_M_is_localEv.exit.thread.i.i.i2.i, %_ZNKSt7__cxx1112basic_stringIcSt11char_traitsIcESaIcEE11_M_is_localEv.exit.i.i.i1.i
  call void @llvm.lifetime.end.p0(i64 88, ptr nonnull %3) #26
  ret void

66:                                               ; preds = %_ZNO5vcpkg14DiagnosticLine17reduce_to_warningEv.exit
  %67 = landingpad { ptr, i32 }
          cleanup
  call void @_ZN5vcpkg14DiagnosticLineD2Ev(ptr noundef nonnull align 8 dereferenceable(88) %3) #26
  call void @llvm.lifetime.end.p0(i64 88, ptr nonnull %3) #26
  resume { ptr, i32 } %67
}